; Function Attrs: nounwind uwtable
define ptr @l_Std_Time_Weekday_ofNat_x21(ptr noundef %0) local_unnamed_addr #1 {
  %2 = tail call ptr @l_Std_Time_Weekday_ofNat_x3f(ptr noundef %0)
  %3 = ptrtoint ptr %2 to i64
  %4 = and i64 %3, 1
  %.not.i9 = icmp eq i64 %4, 0
  br i1 %.not.i9, label %8, label %5

5:                                                ; preds = %1
  %6 = lshr i64 %3, 1
  %7 = trunc i64 %6 to i32
  br label %lean_obj_tag.exit

8:                                                ; preds = %1
  %9 = getelementptr i8, ptr %2, i64 4
  %.val.i = load i32, ptr %9, align 4
  %10 = lshr i32 %.val.i, 24
  br label %lean_obj_tag.exit

lean_obj_tag.exit:                                ; preds = %5, %8
  %.0.i = phi i32 [ %7, %5 ], [ %10, %8 ]
  %11 = icmp eq i32 %.0.i, 0
  br i1 %11, label %12, label %20

12:                                               ; preds = %lean_obj_tag.exit
  %13 = load ptr, ptr @l_Std_Time_Weekday_ofNat_x21___closed__4, align 8, !tbaa !10
  %14 = load i8, ptr @l_Std_Time_instInhabitedWeekday, align 1, !tbaa !17
  %15 = zext i8 %14 to i64
  %16 = shl nuw nsw i64 %15, 1
  %17 = or disjoint i64 %16, 1
  %18 = inttoptr i64 %17 to ptr
  %19 = tail call ptr @lean_panic_fn(ptr noundef nonnull %18, ptr noundef %13) #7
  br label %lean_dec.exit

20:                                               ; preds = %lean_obj_tag.exit
  %21 = getelementptr i8, ptr %2, i64 8
  %.val = load ptr, ptr %21, align 8, !tbaa !10
  %22 = ptrtoint ptr %.val to i64
  %23 = and i64 %22, 1
  %.not = icmp eq i64 %23, 0
  br i1 %.not, label %24, label %lean_inc.exit

24:                                               ; preds = %20
  %.val.i10 = load i32, ptr %.val, align 4, !tbaa !4
  %25 = icmp sgt i32 %.val.i10, 0
  br i1 %25, label %26, label %28, !prof !9

26:                                               ; preds = %24
  %27 = add nuw i32 %.val.i10, 1
  store i32 %27, ptr %.val, align 4, !tbaa !4
  br label %lean_inc.exit

28:                                               ; preds = %24
  %.not.i11 = icmp eq i32 %.val.i10, 0
  br i1 %.not.i11, label %lean_inc.exit, label %29

29:                                               ; preds = %28
  tail call void @lean_inc_ref_cold(ptr noundef nonnull %.val) #7
  br label %lean_inc.exit

lean_inc.exit:                                    ; preds = %29, %28, %26, %20
  br i1 %.not.i9, label %30, label %lean_dec.exit

30:                                               ; preds = %lean_inc.exit
  %31 = load i32, ptr %2, align 4, !tbaa !4
  %32 = icmp sgt i32 %31, 1
  br i1 %32, label %33, label %35, !prof !9

33:                                               ; preds = %30
  %34 = add nsw i32 %31, -1
  store i32 %34, ptr %2, align 4, !tbaa !4
  br label %lean_dec.exit

35:                                               ; preds = %30
  %.not.i = icmp eq i32 %31, 0
  br i1 %.not.i, label %lean_dec.exit, label %36

36:                                               ; preds = %35
  tail call void @lean_dec_ref_cold(ptr noundef nonnull %2) #7
  br label %lean_dec.exit

lean_dec.exit:                                    ; preds = %lean_inc.exit, %33, %35, %36, %12
  %.0 = phi ptr [ %19, %12 ], [ %.val, %36 ], [ %.val, %35 ], [ %.val, %33 ], [ %.val, %lean_inc.exit ]
  ret ptr %.0
}